target datalayout = "e-m:e-p270:32:32-p271:32:32-p272:64:64-i64:64-i128:128-f80:128-n8:16:32:64-S128"
target triple = "x86_64-pc-linux-gnu"

%struct._packet_info = type { ptr, ptr, i32, i32, %struct.nstime_t, %struct.nstime_t, %struct.nstime_t, i8, ptr, ptr, ptr, ptr, %struct._address, %struct._address, %struct._address, %struct._address, %struct._address, %struct._address, i32, ptr, i8, [3 x i8], %struct.anon, i32, i32, i32, i32, ptr, i8, ptr, ptr, i16, i16, i32, i32, i16, i32, i32, ptr, ptr, ptr, i8, i8, i16, i16, i16, i32, i16, i16, ptr, ptr, ptr, ptr, ptr, i32, i32 }
%struct.nstime_t = type { i64, i32 }
%struct._address = type { i32, i32, ptr, ptr }
%struct.anon = type { i8, [3 x i8] }

@.str.41 = private unnamed_addr constant [23 x i8] c"Unknown Message Format\00", align 1

; Function Attrs: null_pointer_is_valid sspstrong uwtable
define internal i32 @testchar(ptr noundef %0, ptr noundef %1, i32 noundef %2, i32 noundef %3, i8 noundef signext %4, ptr noundef %5) #0 {
  %7 = alloca i32, align 4
  %8 = alloca ptr, align 8
  %9 = alloca ptr, align 8
  %10 = alloca i32, align 4
  %11 = alloca i32, align 4
  %12 = alloca i8, align 1
  %13 = alloca ptr, align 8
  %14 = alloca i8, align 1
  %15 = alloca i32, align 4
  store ptr %0, ptr %8, align 8
  store ptr %1, ptr %9, align 8
  store i32 %2, ptr %10, align 4
  store i32 %3, ptr %11, align 4
  store i8 %4, ptr %12, align 1
  store ptr %5, ptr %13, align 8
  call void @llvm.lifetime.start.p0(i64 1, ptr %14) #3
  %16 = load ptr, ptr %8, align 8
  %17 = load i32, ptr %10, align 4
  %18 = call zeroext i1 @tvb_bytes_exist(ptr noundef %16, i32 noundef %17, i32 noundef 1)
  br i1 %18, label %19, label %45

19:                                               ; preds = %6
  %20 = load ptr, ptr %8, align 8
  %21 = load i32, ptr %10, align 4
  %22 = call zeroext i8 @tvb_get_uint8(ptr noundef %20, i32 noundef %21)
  %23 = zext i8 %22 to i32
  %24 = and i32 %23, 127
  %25 = trunc i32 %24 to i8
  store i8 %25, ptr %14, align 1
  %26 = load i32, ptr %11, align 4
  %27 = icmp eq i32 %26, 2
  br i1 %27, label %37, label %28

28:                                               ; preds = %19
  %29 = load i32, ptr %11, align 4
  %30 = icmp eq i32 %29, 1
  br i1 %30, label %31, label %44

31:                                               ; preds = %28
  %32 = load i8, ptr %14, align 1
  %33 = sext i8 %32 to i32
  %34 = load i8, ptr %12, align 1
  %35 = sext i8 %34 to i32
  %36 = icmp eq i32 %33, %35
  br i1 %36, label %37, label %44

37:                                               ; preds = %31, %19
  %38 = load ptr, ptr %13, align 8
  %39 = icmp ne ptr %38, null
  br i1 %39, label %40, label %43

40:                                               ; preds = %37
  %41 = load i8, ptr %14, align 1
  %42 = load ptr, ptr %13, align 8
  store i8 %41, ptr %42, align 1
  br label %43

43:                                               ; preds = %40, %37
  store i32 1, ptr %7, align 4
  store i32 1, ptr %15, align 4
  br label %49

44:                                               ; preds = %31, %28
  store i32 0, ptr %7, align 4
  store i32 1, ptr %15, align 4
  br label %49

45:                                               ; preds = %6
  %46 = load ptr, ptr %9, align 8
  %47 = getelementptr inbounds nuw %struct._packet_info, ptr %46, i32 0, i32 1
  %48 = load ptr, ptr %47, align 8
  call void @col_set_str(ptr noundef %48, i32 noundef 25, ptr noundef @.str.41)
  store i32 0, ptr %7, align 4
  store i32 1, ptr %15, align 4
  br label %49

49:                                               ; preds = %45, %44, %43
  call void @llvm.lifetime.end.p0(i64 1, ptr %14) #3
  %50 = load i32, ptr %7, align 4
  ret i32 %50
}