; Function Attrs: null_pointer_is_valid sspstrong uwtable
define internal fastcc range(i32 0, 2) i32 @testchar(ptr noundef %0, ptr noundef readonly captures(none) %1, i32 noundef range(i32 0, 9) %2, i32 noundef range(i32 1, 3) %3, i8 noundef signext range(i8 0, 64) %4, ptr noundef writeonly captures(address_is_null) %5) unnamed_addr #0 {
  %7 = tail call zeroext i1 @tvb_bytes_exist(ptr noundef %0, i32 noundef %2, i32 noundef 1)
  br i1 %7, label %8, label %15

8:                                                ; preds = %6
  %9 = tail call zeroext i8 @tvb_get_uint8(ptr noundef %0, i32 noundef %2)
  %10 = and i8 %9, 127
  %11 = icmp eq i32 %3, 2
  %12 = icmp eq i8 %10, %4
  %or.cond = select i1 %11, i1 true, i1 %12
  br i1 %or.cond, label %13, label %18

13:                                               ; preds = %8
  %.not = icmp eq ptr %5, null
  br i1 %.not, label %18, label %14

14:                                               ; preds = %13
  store i8 %10, ptr %5, align 1
  br label %18

15:                                               ; preds = %6
  %16 = getelementptr inbounds nuw i8, ptr %1, i64 8
  %17 = load ptr, ptr %16, align 8
  tail call void @col_set_str(ptr noundef %17, i32 noundef 25, ptr noundef nonnull @.str.41)
  br label %18

18:                                               ; preds = %8, %13, %14, %15
  %.0 = phi i32 [ 0, %15 ], [ 1, %14 ], [ 1, %13 ], [ 0, %8 ]
  ret i32 %.0
}